(dp1
S'OriginalConfig'
p2
ccopy_reg
_reconstructor
p3
(cWMCore.Configuration
Configuration
p4
c__builtin__
object
p5
NtRp6
(dp7
S'Site'
p8
g3
(cWMCore.Configuration
ConfigSection
p9
g5
NtRp10
(dp11
S'_internal_skipChecks'
p12
I00
sS'_internal_documentation'
p13
S''
sS'_internal_settings'
p14
c__builtin__
set
p15
((lp16
S'storageSite'
p17
atRp18
sS'_internal_name'
p19
g8
sS'_internal_docstrings'
p20
(dp21
sS'_internal_children'
p22
g15
((ltRp23
sg17
S'T3_US_FNALLPC'
p24
sS'_internal_parent_ref'
p25
NsbsS'_internal_sections'
p26
(lp27
S'General'
p28
aS'JobType'
p29
aS'Data'
p30
ag8
aS'User'
p31
aS'Debug'
p32
asg28
g3
(g9
g5
NtRp33
(dp34
S'transferLogs'
p35
I01
sg12
I00
sg13
S''
sg14
g15
((lp36
g35
aS'transferOutputs'
p37
aS'workArea'
p38
aS'requestName'
p39
atRp40
sg19
g28
sg20
(dp41
sg37
I01
sg22
g15
((ltRp42
sg39
S'TTbar_pT200_1Tjet_aod_m-1000'
p43
sg25
Nsg38
S'/uscms/home/npervan/nobackup/e2e/slc7_jmar/CMSSW_8_0_21/src/MLAnalyzer'
p44
sbsS'_internal_webapps'
p45
(lp46
sg31
g3
(g9
g5
NtRp47
(dp48
g12
I00
sg13
S''
sg14
g15
((ltRp49
sg19
g31
sg20
(dp50
sg22
g15
((ltRp51
sg25
NsbsS'_internal_components'
p52
(lp53
sg32
g3
(g9
g5
NtRp54
(dp55
g12
I00
sg13
S''
sg14
g15
((ltRp56
sg19
g32
sg20
(dp57
sg22
g15
((ltRp58
sg25
Nsbsg30
g3
(g9
g5
NtRp59
(dp60
S'outputDatasetTag'
p61
g43
sg12
I00
sS'unitsPerJob'
p62
I4
sg13
S''
sg14
g15
((lp63
g61
aS'publication'
p64
ag62
aS'userInputFiles'
p65
aS'splitting'
p66
aS'outLFNDirBase'
p67
atRp68
sg19
g30
sg66
S'FileBased'
p69
sg20
(dp70
sg22
g15
((ltRp71
sg67
S'/store/user/npervan/e2e/top_jmar121019/'
p72
sg25
Nsg65
(lp73
S'/store/user/npervan/e2e/jmar_aodsim/ZprimeToTT_M-1000_W-10_TuneCUETP8M1_13TeV-madgraphMLM-pythia8/AODSIM/PUMoriond17_80X_mcRun2_asymptotic_2016_TrancheIV_v6-v1/80000/125F13B2-7EC1-E611-9107-008CFA110DD8.root\n'
p74
aS'/store/user/npervan/e2e/jmar_aodsim/ZprimeToTT_M-1000_W-10_TuneCUETP8M1_13TeV-madgraphMLM-pythia8/AODSIM/PUMoriond17_80X_mcRun2_asymptotic_2016_TrancheIV_v6-v1/80000/26054687-8FC1-E611-B0C1-008CFA19746C.root\n'
p75
aS'/store/user/npervan/e2e/jmar_aodsim/ZprimeToTT_M-1000_W-10_TuneCUETP8M1_13TeV-madgraphMLM-pythia8/AODSIM/PUMoriond17_80X_mcRun2_asymptotic_2016_TrancheIV_v6-v1/80000/32C4E42A-8CC1-E611-8288-00259055C8E6.root\n'
p76
aS'/store/user/npervan/e2e/jmar_aodsim/ZprimeToTT_M-1000_W-10_TuneCUETP8M1_13TeV-madgraphMLM-pythia8/AODSIM/PUMoriond17_80X_mcRun2_asymptotic_2016_TrancheIV_v6-v1/80000/401A5FC3-D8C1-E611-AD72-0CC47AA98F98.root\n'
p77
aS'/store/user/npervan/e2e/jmar_aodsim/ZprimeToTT_M-1000_W-10_TuneCUETP8M1_13TeV-madgraphMLM-pythia8/AODSIM/PUMoriond17_80X_mcRun2_asymptotic_2016_TrancheIV_v6-v1/80000/42780DAB-92C1-E611-B5BF-008CFA1974DC.root\n'
p78
aS'/store/user/npervan/e2e/jmar_aodsim/ZprimeToTT_M-1000_W-10_TuneCUETP8M1_13TeV-madgraphMLM-pythia8/AODSIM/PUMoriond17_80X_mcRun2_asymptotic_2016_TrancheIV_v6-v1/80000/683D6AEB-91C1-E611-9FB3-008CFA1974B4.root\n'
p79
aS'/store/user/npervan/e2e/jmar_aodsim/ZprimeToTT_M-1000_W-10_TuneCUETP8M1_13TeV-madgraphMLM-pythia8/AODSIM/PUMoriond17_80X_mcRun2_asymptotic_2016_TrancheIV_v6-v1/80000/8C605C75-D8C1-E611-9481-008CFA11116C.root\n'
p80
aS'/store/user/npervan/e2e/jmar_aodsim/ZprimeToTT_M-1000_W-10_TuneCUETP8M1_13TeV-madgraphMLM-pythia8/AODSIM/PUMoriond17_80X_mcRun2_asymptotic_2016_TrancheIV_v6-v1/80000/A217BE78-83C1-E611-AE6E-008CFA1974D8.root\n'
p81
aS'/store/user/npervan/e2e/jmar_aodsim/ZprimeToTT_M-1000_W-10_TuneCUETP8M1_13TeV-madgraphMLM-pythia8/AODSIM/PUMoriond17_80X_mcRun2_asymptotic_2016_TrancheIV_v6-v1/80000/B4EEC5E2-91C1-E611-88FC-0025905521D2.root\n'
p82
aS'/store/user/npervan/e2e/jmar_aodsim/ZprimeToTT_M-1000_W-10_TuneCUETP8M1_13TeV-madgraphMLM-pythia8/AODSIM/PUMoriond17_80X_mcRun2_asymptotic_2016_TrancheIV_v6-v1/80000/D496D719-8BC1-E611-9EBA-008CFA165F48.root\n'
p83
aS'/store/user/npervan/e2e/jmar_aodsim/ZprimeToTT_M-1000_W-10_TuneCUETP8M1_13TeV-madgraphMLM-pythia8/AODSIM/PUMoriond17_80X_mcRun2_asymptotic_2016_TrancheIV_v6-v1/80000/E25F4B0D-89C1-E611-9496-0025905505FC.root\n'
p84
aS'/store/user/npervan/e2e/jmar_aodsim/ZprimeToTT_M-1000_W-10_TuneCUETP8M1_13TeV-madgraphMLM-pythia8/AODSIM/PUMoriond17_80X_mcRun2_asymptotic_2016_TrancheIV_v6-v1/80000/E62C4760-91C1-E611-B25F-008CFA197C34.root\n'
p85
aS'/store/user/npervan/e2e/jmar_aodsim/ZprimeToTT_M-1000_W-10_TuneCUETP8M1_13TeV-madgraphMLM-pythia8/AODSIM/PUMoriond17_80X_mcRun2_asymptotic_2016_TrancheIV_v6-v1/80000/F84A7DD7-81C1-E611-8F4E-008CFA197BD4.root\n'
p86
aS'/store/user/npervan/e2e/jmar_aodsim/ZprimeToTT_M-1000_W-10_TuneCUETP8M1_13TeV-madgraphMLM-pythia8/AODSIM/PUMoriond17_80X_mcRun2_asymptotic_2016_TrancheIV_v6-v1/80000/F8D68B43-8AC1-E611-9588-008CFA110C88.root\n'
p87
aS'/store/user/npervan/e2e/jmar_aodsim/ZprimeToTT_M-1000_W-10_TuneCUETP8M1_13TeV-madgraphMLM-pythia8/AODSIM/PUMoriond17_80X_mcRun2_asymptotic_2016_TrancheIV_v6-v1/80000/FCE8577C-D8C1-E611-B1B2-0CC47A4D765A.root\n'
p88
asg64
I00
sbsg29
g3
(g9
g5
NtRp89
(dp90
g12
I00
sS'pyCfgParams'
p91
(lp92
S'outputFile=TTbar_pT200_1Tjet_aod_m-1000.root'
p93
aS'isTTbar=1'
p94
asg13
S''
sg14
g15
((lp95
S'psetName'
p96
aS'pluginName'
p97
ag91
aS'maxMemoryMB'
p98
aS'allowUndistributedCMSSW'
p99
atRp100
sg19
g29
sg20
(dp101
sg97
S'Analysis'
p102
sg22
g15
((ltRp103
sg99
I01
sg96
S'RecHitAnalyzer/python/ConfFile_cfg.py'
p104
sg25
Nsg98
I4000
sbsbsS'voGroup'
p105
S''
sS'Server'
p106
S'cmsweb.cern.ch'
p107
sS'instance'
p108
S'prod'
p109
sS'RequestName'
p110
V191210_163852:npervan_crab_TTbar_pT200_1Tjet_aod_m-1000
p111
sS'voRole'
p112
S'NULL'
p113
sS'Port'
p114
S''
s.