(dp1
S'OriginalConfig'
p2
ccopy_reg
_reconstructor
p3
(cWMCore.Configuration
Configuration
p4
c__builtin__
object
p5
NtRp6
(dp7
S'Site'
p8
g3
(cWMCore.Configuration
ConfigSection
p9
g5
NtRp10
(dp11
S'_internal_skipChecks'
p12
I00
sS'_internal_documentation'
p13
S''
sS'_internal_settings'
p14
c__builtin__
set
p15
((lp16
S'storageSite'
p17
atRp18
sS'_internal_name'
p19
g8
sS'_internal_docstrings'
p20
(dp21
sS'_internal_children'
p22
g15
((ltRp23
sg17
S'T3_US_FNALLPC'
p24
sS'_internal_parent_ref'
p25
NsbsS'_internal_sections'
p26
(lp27
S'General'
p28
aS'JobType'
p29
aS'Data'
p30
ag8
aS'User'
p31
aS'Debug'
p32
asg28
g3
(g9
g5
NtRp33
(dp34
S'transferLogs'
p35
I01
sg12
I00
sg13
S''
sg14
g15
((lp36
g35
aS'transferOutputs'
p37
aS'workArea'
p38
aS'requestName'
p39
atRp40
sg19
g28
sg20
(dp41
sg37
I01
sg22
g15
((ltRp42
sg39
S'TTbar_pT200_1Tjet_aod_m-1500'
p43
sg25
Nsg38
S'/uscms/home/npervan/nobackup/e2e/slc7_jmar/CMSSW_8_0_21/src/MLAnalyzer'
p44
sbsS'_internal_webapps'
p45
(lp46
sg31
g3
(g9
g5
NtRp47
(dp48
g12
I00
sg13
S''
sg14
g15
((ltRp49
sg19
g31
sg20
(dp50
sg22
g15
((ltRp51
sg25
NsbsS'_internal_components'
p52
(lp53
sg32
g3
(g9
g5
NtRp54
(dp55
g12
I00
sg13
S''
sg14
g15
((ltRp56
sg19
g32
sg20
(dp57
sg22
g15
((ltRp58
sg25
Nsbsg30
g3
(g9
g5
NtRp59
(dp60
S'outputDatasetTag'
p61
g43
sg12
I00
sS'unitsPerJob'
p62
I4
sg13
S''
sg14
g15
((lp63
g61
aS'publication'
p64
ag62
aS'userInputFiles'
p65
aS'splitting'
p66
aS'outLFNDirBase'
p67
atRp68
sg19
g30
sg66
S'FileBased'
p69
sg20
(dp70
sg22
g15
((ltRp71
sg67
S'/store/user/npervan/e2e/top_jmar121019/'
p72
sg25
Nsg65
(lp73
S'/store/user/npervan/e2e/jmar_aodsim/ZprimeToTT_M-1500_W-15_TuneCUETP8M1_13TeV-madgraphMLM-pythia8/AODSIM/PUMoriond17_80X_mcRun2_asymptotic_2016_TrancheIV_v6-v1/60000/0256EAFD-74B7-E611-9C23-002590550546.root\n'
p74
aS'/store/user/npervan/e2e/jmar_aodsim/ZprimeToTT_M-1500_W-15_TuneCUETP8M1_13TeV-madgraphMLM-pythia8/AODSIM/PUMoriond17_80X_mcRun2_asymptotic_2016_TrancheIV_v6-v1/60000/1C10AED3-11B7-E611-B8E2-FA163EC2708C.root\n'
p75
aS'/store/user/npervan/e2e/jmar_aodsim/ZprimeToTT_M-1500_W-15_TuneCUETP8M1_13TeV-madgraphMLM-pythia8/AODSIM/PUMoriond17_80X_mcRun2_asymptotic_2016_TrancheIV_v6-v1/60000/1E4F6AE8-0EB7-E611-9E3D-001E67A401B3.root\n'
p76
aS'/store/user/npervan/e2e/jmar_aodsim/ZprimeToTT_M-1500_W-15_TuneCUETP8M1_13TeV-madgraphMLM-pythia8/AODSIM/PUMoriond17_80X_mcRun2_asymptotic_2016_TrancheIV_v6-v1/60000/2616E97A-74B7-E611-9070-02163E012D77.root\n'
p77
aS'/store/user/npervan/e2e/jmar_aodsim/ZprimeToTT_M-1500_W-15_TuneCUETP8M1_13TeV-madgraphMLM-pythia8/AODSIM/PUMoriond17_80X_mcRun2_asymptotic_2016_TrancheIV_v6-v1/60000/4E62BFB6-0CB7-E611-AF5B-FA163EC046F1.root\n'
p78
aS'/store/user/npervan/e2e/jmar_aodsim/ZprimeToTT_M-1500_W-15_TuneCUETP8M1_13TeV-madgraphMLM-pythia8/AODSIM/PUMoriond17_80X_mcRun2_asymptotic_2016_TrancheIV_v6-v1/60000/5EB7A5CB-0BB7-E611-9807-02163E014C4C.root\n'
p79
aS'/store/user/npervan/e2e/jmar_aodsim/ZprimeToTT_M-1500_W-15_TuneCUETP8M1_13TeV-madgraphMLM-pythia8/AODSIM/PUMoriond17_80X_mcRun2_asymptotic_2016_TrancheIV_v6-v1/60000/628F7F76-0FB7-E611-9AB2-90B11C1453E1.root\n'
p80
aS'/store/user/npervan/e2e/jmar_aodsim/ZprimeToTT_M-1500_W-15_TuneCUETP8M1_13TeV-madgraphMLM-pythia8/AODSIM/PUMoriond17_80X_mcRun2_asymptotic_2016_TrancheIV_v6-v1/60000/68978D95-74B7-E611-B80C-0CC47AD98C5E.root\n'
p81
aS'/store/user/npervan/e2e/jmar_aodsim/ZprimeToTT_M-1500_W-15_TuneCUETP8M1_13TeV-madgraphMLM-pythia8/AODSIM/PUMoriond17_80X_mcRun2_asymptotic_2016_TrancheIV_v6-v1/60000/68BD0506-11B7-E611-9657-001517FB228C.root\n'
p82
aS'/store/user/npervan/e2e/jmar_aodsim/ZprimeToTT_M-1500_W-15_TuneCUETP8M1_13TeV-madgraphMLM-pythia8/AODSIM/PUMoriond17_80X_mcRun2_asymptotic_2016_TrancheIV_v6-v1/60000/72EF958A-74B7-E611-8FC6-002590D9D8BA.root\n'
p83
aS'/store/user/npervan/e2e/jmar_aodsim/ZprimeToTT_M-1500_W-15_TuneCUETP8M1_13TeV-madgraphMLM-pythia8/AODSIM/PUMoriond17_80X_mcRun2_asymptotic_2016_TrancheIV_v6-v1/60000/88E8D41C-12B7-E611-9543-FA163EEEFF3B.root\n'
p84
aS'/store/user/npervan/e2e/jmar_aodsim/ZprimeToTT_M-1500_W-15_TuneCUETP8M1_13TeV-madgraphMLM-pythia8/AODSIM/PUMoriond17_80X_mcRun2_asymptotic_2016_TrancheIV_v6-v1/60000/90F2CE7B-74B7-E611-B487-001E67A3EAB1.root\n'
p85
aS'/store/user/npervan/e2e/jmar_aodsim/ZprimeToTT_M-1500_W-15_TuneCUETP8M1_13TeV-madgraphMLM-pythia8/AODSIM/PUMoriond17_80X_mcRun2_asymptotic_2016_TrancheIV_v6-v1/60000/96B093E7-11B7-E611-B457-90B11C064B50.root\n'
p86
aS'/store/user/npervan/e2e/jmar_aodsim/ZprimeToTT_M-1500_W-15_TuneCUETP8M1_13TeV-madgraphMLM-pythia8/AODSIM/PUMoriond17_80X_mcRun2_asymptotic_2016_TrancheIV_v6-v1/60000/BC82EDA1-0FB7-E611-901A-02163E00C4B7.root\n'
p87
aS'/store/user/npervan/e2e/jmar_aodsim/ZprimeToTT_M-1500_W-15_TuneCUETP8M1_13TeV-madgraphMLM-pythia8/AODSIM/PUMoriond17_80X_mcRun2_asymptotic_2016_TrancheIV_v6-v1/60000/BE3A18A8-74B7-E611-B578-02163E014EDE.root\n'
p88
aS'/store/user/npervan/e2e/jmar_aodsim/ZprimeToTT_M-1500_W-15_TuneCUETP8M1_13TeV-madgraphMLM-pythia8/AODSIM/PUMoriond17_80X_mcRun2_asymptotic_2016_TrancheIV_v6-v1/60000/C832AF89-0EB7-E611-A389-FA163EF96139.root\n'
p89
aS'/store/user/npervan/e2e/jmar_aodsim/ZprimeToTT_M-1500_W-15_TuneCUETP8M1_13TeV-madgraphMLM-pythia8/AODSIM/PUMoriond17_80X_mcRun2_asymptotic_2016_TrancheIV_v6-v1/60000/EAABB8C0-0FB7-E611-B8FB-02163E00C083.root\n'
p90
aS'/store/user/npervan/e2e/jmar_aodsim/ZprimeToTT_M-1500_W-15_TuneCUETP8M1_13TeV-madgraphMLM-pythia8/AODSIM/PUMoriond17_80X_mcRun2_asymptotic_2016_TrancheIV_v6-v1/60000/FE39F6EA-19B7-E611-88C0-FA163EB32E82.root\n'
p91
asg64
I00
sbsg29
g3
(g9
g5
NtRp92
(dp93
g12
I00
sS'pyCfgParams'
p94
(lp95
S'outputFile=TTbar_pT200_1Tjet_aod_m-1500.root'
p96
aS'isTTbar=1'
p97
asg13
S''
sg14
g15
((lp98
S'psetName'
p99
aS'pluginName'
p100
ag94
aS'maxMemoryMB'
p101
aS'allowUndistributedCMSSW'
p102
atRp103
sg19
g29
sg20
(dp104
sg100
S'Analysis'
p105
sg22
g15
((ltRp106
sg102
I01
sg99
S'RecHitAnalyzer/python/ConfFile_cfg.py'
p107
sg25
Nsg101
I4000
sbsbsS'voGroup'
p108
S''
sS'Server'
p109
S'cmsweb.cern.ch'
p110
sS'instance'
p111
S'prod'
p112
sS'RequestName'
p113
V191210_164121:npervan_crab_TTbar_pT200_1Tjet_aod_m-1500
p114
sS'voRole'
p115
S'NULL'
p116
sS'Port'
p117
S''
s.