(dp1
S'OriginalConfig'
p2
ccopy_reg
_reconstructor
p3
(cWMCore.Configuration
Configuration
p4
c__builtin__
object
p5
NtRp6
(dp7
S'Site'
p8
g3
(cWMCore.Configuration
ConfigSection
p9
g5
NtRp10
(dp11
S'_internal_skipChecks'
p12
I00
sS'_internal_documentation'
p13
S''
sS'_internal_settings'
p14
c__builtin__
set
p15
((lp16
S'storageSite'
p17
atRp18
sS'_internal_name'
p19
g8
sS'_internal_docstrings'
p20
(dp21
sS'_internal_children'
p22
g15
((ltRp23
sg17
S'T3_US_FNALLPC'
p24
sS'_internal_parent_ref'
p25
NsbsS'_internal_sections'
p26
(lp27
S'General'
p28
aS'JobType'
p29
aS'Data'
p30
ag8
aS'User'
p31
aS'Debug'
p32
asg28
g3
(g9
g5
NtRp33
(dp34
S'transferLogs'
p35
I01
sg12
I00
sg13
S''
sg14
g15
((lp36
g35
aS'transferOutputs'
p37
aS'workArea'
p38
aS'requestName'
p39
atRp40
sg19
g28
sg20
(dp41
sg37
I01
sg22
g15
((ltRp42
sg39
S'TTbar_pT200_1Tjet_aod_m-5000'
p43
sg25
Nsg38
S'/uscms/home/npervan/nobackup/e2e/slc7_jmar/CMSSW_8_0_21/src/MLAnalyzer'
p44
sbsS'_internal_webapps'
p45
(lp46
sg31
g3
(g9
g5
NtRp47
(dp48
g12
I00
sg13
S''
sg14
g15
((ltRp49
sg19
g31
sg20
(dp50
sg22
g15
((ltRp51
sg25
NsbsS'_internal_components'
p52
(lp53
sg32
g3
(g9
g5
NtRp54
(dp55
g12
I00
sg13
S''
sg14
g15
((ltRp56
sg19
g32
sg20
(dp57
sg22
g15
((ltRp58
sg25
Nsbsg30
g3
(g9
g5
NtRp59
(dp60
S'outputDatasetTag'
p61
g43
sg12
I00
sS'unitsPerJob'
p62
I4
sg13
S''
sg14
g15
((lp63
g61
aS'publication'
p64
ag62
aS'userInputFiles'
p65
aS'splitting'
p66
aS'outLFNDirBase'
p67
atRp68
sg19
g30
sg66
S'FileBased'
p69
sg20
(dp70
sg22
g15
((ltRp71
sg67
S'/store/user/npervan/e2e/top_jmar121019/'
p72
sg25
Nsg65
(lp73
S'/store/user/npervan/e2e/jmar_aodsim/ZprimeToTT_M-5000_W-50_TuneCUETP8M1_13TeV-madgraphMLM-pythia8/AODSIM/PUMoriond17_80X_mcRun2_asymptotic_2016_TrancheIV_v6-v1/80000/0A0493E9-FC11-E711-B73B-0019B9CB025A.root\n'
p74
aS'/store/user/npervan/e2e/jmar_aodsim/ZprimeToTT_M-5000_W-50_TuneCUETP8M1_13TeV-madgraphMLM-pythia8/AODSIM/PUMoriond17_80X_mcRun2_asymptotic_2016_TrancheIV_v6-v1/80000/147A4C1C-9A12-E711-9431-F04DA274723C.root\n'
p75
aS'/store/user/npervan/e2e/jmar_aodsim/ZprimeToTT_M-5000_W-50_TuneCUETP8M1_13TeV-madgraphMLM-pythia8/AODSIM/PUMoriond17_80X_mcRun2_asymptotic_2016_TrancheIV_v6-v1/80000/18E991C9-2012-E711-81E1-002590E7DF2A.root\n'
p76
aS'/store/user/npervan/e2e/jmar_aodsim/ZprimeToTT_M-5000_W-50_TuneCUETP8M1_13TeV-madgraphMLM-pythia8/AODSIM/PUMoriond17_80X_mcRun2_asymptotic_2016_TrancheIV_v6-v1/80000/1A1B7815-5B12-E711-9DEE-008CFAF2931E.root\n'
p77
aS'/store/user/npervan/e2e/jmar_aodsim/ZprimeToTT_M-5000_W-50_TuneCUETP8M1_13TeV-madgraphMLM-pythia8/AODSIM/PUMoriond17_80X_mcRun2_asymptotic_2016_TrancheIV_v6-v1/80000/1AAE2B98-0012-E711-8A50-0CC47A4C8E38.root\n'
p78
aS'/store/user/npervan/e2e/jmar_aodsim/ZprimeToTT_M-5000_W-50_TuneCUETP8M1_13TeV-madgraphMLM-pythia8/AODSIM/PUMoriond17_80X_mcRun2_asymptotic_2016_TrancheIV_v6-v1/80000/1C9516D0-A312-E711-8F3D-0CC47A706D18.root\n'
p79
aS'/store/user/npervan/e2e/jmar_aodsim/ZprimeToTT_M-5000_W-50_TuneCUETP8M1_13TeV-madgraphMLM-pythia8/AODSIM/PUMoriond17_80X_mcRun2_asymptotic_2016_TrancheIV_v6-v1/80000/24652663-DD12-E711-B7B5-0025905C4264.root\n'
p80
aS'/store/user/npervan/e2e/jmar_aodsim/ZprimeToTT_M-5000_W-50_TuneCUETP8M1_13TeV-madgraphMLM-pythia8/AODSIM/PUMoriond17_80X_mcRun2_asymptotic_2016_TrancheIV_v6-v1/80000/26A9D0E4-0712-E711-85A6-008CFA110C78.root\n'
p81
aS'/store/user/npervan/e2e/jmar_aodsim/ZprimeToTT_M-5000_W-50_TuneCUETP8M1_13TeV-madgraphMLM-pythia8/AODSIM/PUMoriond17_80X_mcRun2_asymptotic_2016_TrancheIV_v6-v1/80000/2C41B729-E911-E711-9A6B-0CC47A7D998A.root\n'
p82
aS'/store/user/npervan/e2e/jmar_aodsim/ZprimeToTT_M-5000_W-50_TuneCUETP8M1_13TeV-madgraphMLM-pythia8/AODSIM/PUMoriond17_80X_mcRun2_asymptotic_2016_TrancheIV_v6-v1/80000/3057FF77-3713-E711-80F8-00259048AE50.root\n'
p83
aS'/store/user/npervan/e2e/jmar_aodsim/ZprimeToTT_M-5000_W-50_TuneCUETP8M1_13TeV-madgraphMLM-pythia8/AODSIM/PUMoriond17_80X_mcRun2_asymptotic_2016_TrancheIV_v6-v1/80000/3402AC64-2712-E711-B21F-0242AC130002.root\n'
p84
aS'/store/user/npervan/e2e/jmar_aodsim/ZprimeToTT_M-5000_W-50_TuneCUETP8M1_13TeV-madgraphMLM-pythia8/AODSIM/PUMoriond17_80X_mcRun2_asymptotic_2016_TrancheIV_v6-v1/80000/48164078-8A11-E711-B9A6-A0000420FE80.root\n'
p85
aS'/store/user/npervan/e2e/jmar_aodsim/ZprimeToTT_M-5000_W-50_TuneCUETP8M1_13TeV-madgraphMLM-pythia8/AODSIM/PUMoriond17_80X_mcRun2_asymptotic_2016_TrancheIV_v6-v1/80000/4A3923EE-EB13-E711-8D3A-549F358EB73B.root\n'
p86
aS'/store/user/npervan/e2e/jmar_aodsim/ZprimeToTT_M-5000_W-50_TuneCUETP8M1_13TeV-madgraphMLM-pythia8/AODSIM/PUMoriond17_80X_mcRun2_asymptotic_2016_TrancheIV_v6-v1/80000/6613B19F-A812-E711-92E2-FA163E6028F5.root\n'
p87
aS'/store/user/npervan/e2e/jmar_aodsim/ZprimeToTT_M-5000_W-50_TuneCUETP8M1_13TeV-madgraphMLM-pythia8/AODSIM/PUMoriond17_80X_mcRun2_asymptotic_2016_TrancheIV_v6-v1/80000/66AE9ACC-D812-E711-B4EE-0090FAA573E0.root\n'
p88
aS'/store/user/npervan/e2e/jmar_aodsim/ZprimeToTT_M-5000_W-50_TuneCUETP8M1_13TeV-madgraphMLM-pythia8/AODSIM/PUMoriond17_80X_mcRun2_asymptotic_2016_TrancheIV_v6-v1/80000/7C82BCA2-D411-E711-A37C-0025905C9726.root\n'
p89
aS'/store/user/npervan/e2e/jmar_aodsim/ZprimeToTT_M-5000_W-50_TuneCUETP8M1_13TeV-madgraphMLM-pythia8/AODSIM/PUMoriond17_80X_mcRun2_asymptotic_2016_TrancheIV_v6-v1/80000/8480BA04-E711-E711-9BEF-6CC2173C4580.root\n'
p90
aS'/store/user/npervan/e2e/jmar_aodsim/ZprimeToTT_M-5000_W-50_TuneCUETP8M1_13TeV-madgraphMLM-pythia8/AODSIM/PUMoriond17_80X_mcRun2_asymptotic_2016_TrancheIV_v6-v1/80000/88B614C2-9E12-E711-8F1B-FA163ED8D70F.root\n'
p91
aS'/store/user/npervan/e2e/jmar_aodsim/ZprimeToTT_M-5000_W-50_TuneCUETP8M1_13TeV-madgraphMLM-pythia8/AODSIM/PUMoriond17_80X_mcRun2_asymptotic_2016_TrancheIV_v6-v1/80000/94B058BB-3411-E711-B8C5-0025905B856E.root\n'
p92
aS'/store/user/npervan/e2e/jmar_aodsim/ZprimeToTT_M-5000_W-50_TuneCUETP8M1_13TeV-madgraphMLM-pythia8/AODSIM/PUMoriond17_80X_mcRun2_asymptotic_2016_TrancheIV_v6-v1/80000/9C096419-6511-E711-8CB7-A0369FC51398.root\n'
p93
aS'/store/user/npervan/e2e/jmar_aodsim/ZprimeToTT_M-5000_W-50_TuneCUETP8M1_13TeV-madgraphMLM-pythia8/AODSIM/PUMoriond17_80X_mcRun2_asymptotic_2016_TrancheIV_v6-v1/80000/9E00419B-F311-E711-97F0-C81F66C0F057.root\n'
p94
aS'/store/user/npervan/e2e/jmar_aodsim/ZprimeToTT_M-5000_W-50_TuneCUETP8M1_13TeV-madgraphMLM-pythia8/AODSIM/PUMoriond17_80X_mcRun2_asymptotic_2016_TrancheIV_v6-v1/80000/A4DD7185-4F12-E711-9BF5-001E67DFF5D7.root\n'
p95
aS'/store/user/npervan/e2e/jmar_aodsim/ZprimeToTT_M-5000_W-50_TuneCUETP8M1_13TeV-madgraphMLM-pythia8/AODSIM/PUMoriond17_80X_mcRun2_asymptotic_2016_TrancheIV_v6-v1/80000/A4E10322-9A12-E711-B113-001E6757F1D4.root\n'
p96
aS'/store/user/npervan/e2e/jmar_aodsim/ZprimeToTT_M-5000_W-50_TuneCUETP8M1_13TeV-madgraphMLM-pythia8/AODSIM/PUMoriond17_80X_mcRun2_asymptotic_2016_TrancheIV_v6-v1/80000/A67E03CF-5312-E711-9015-00259074AE52.root\n'
p97
aS'/store/user/npervan/e2e/jmar_aodsim/ZprimeToTT_M-5000_W-50_TuneCUETP8M1_13TeV-madgraphMLM-pythia8/AODSIM/PUMoriond17_80X_mcRun2_asymptotic_2016_TrancheIV_v6-v1/80000/B0722EF0-9512-E711-8930-002590FD5E88.root\n'
p98
aS'/store/user/npervan/e2e/jmar_aodsim/ZprimeToTT_M-5000_W-50_TuneCUETP8M1_13TeV-madgraphMLM-pythia8/AODSIM/PUMoriond17_80X_mcRun2_asymptotic_2016_TrancheIV_v6-v1/80000/B86F3D72-7812-E711-9337-A0000420FE80.root\n'
p99
aS'/store/user/npervan/e2e/jmar_aodsim/ZprimeToTT_M-5000_W-50_TuneCUETP8M1_13TeV-madgraphMLM-pythia8/AODSIM/PUMoriond17_80X_mcRun2_asymptotic_2016_TrancheIV_v6-v1/80000/B8B426C2-0011-E711-87E0-0025904B9B3C.root\n'
p100
aS'/store/user/npervan/e2e/jmar_aodsim/ZprimeToTT_M-5000_W-50_TuneCUETP8M1_13TeV-madgraphMLM-pythia8/AODSIM/PUMoriond17_80X_mcRun2_asymptotic_2016_TrancheIV_v6-v1/80000/B8D855BB-3B11-E711-8A05-001E67DDC2CC.root\n'
p101
aS'/store/user/npervan/e2e/jmar_aodsim/ZprimeToTT_M-5000_W-50_TuneCUETP8M1_13TeV-madgraphMLM-pythia8/AODSIM/PUMoriond17_80X_mcRun2_asymptotic_2016_TrancheIV_v6-v1/80000/BA0A8945-8111-E711-91BA-00259021A4BE.root\n'
p102
aS'/store/user/npervan/e2e/jmar_aodsim/ZprimeToTT_M-5000_W-50_TuneCUETP8M1_13TeV-madgraphMLM-pythia8/AODSIM/PUMoriond17_80X_mcRun2_asymptotic_2016_TrancheIV_v6-v1/80000/C22D9E7A-B512-E711-BFD0-70106F4A92A0.root\n'
p103
aS'/store/user/npervan/e2e/jmar_aodsim/ZprimeToTT_M-5000_W-50_TuneCUETP8M1_13TeV-madgraphMLM-pythia8/AODSIM/PUMoriond17_80X_mcRun2_asymptotic_2016_TrancheIV_v6-v1/80000/C603B4DD-C013-E711-9C5A-44A842CFD5BE.root\n'
p104
aS'/store/user/npervan/e2e/jmar_aodsim/ZprimeToTT_M-5000_W-50_TuneCUETP8M1_13TeV-madgraphMLM-pythia8/AODSIM/PUMoriond17_80X_mcRun2_asymptotic_2016_TrancheIV_v6-v1/80000/C6F33A75-DC11-E711-AEB6-FA163E299E42.root\n'
p105
aS'/store/user/npervan/e2e/jmar_aodsim/ZprimeToTT_M-5000_W-50_TuneCUETP8M1_13TeV-madgraphMLM-pythia8/AODSIM/PUMoriond17_80X_mcRun2_asymptotic_2016_TrancheIV_v6-v1/80000/D0F7BDAB-F111-E711-AA6C-001E677928AA.root\n'
p106
aS'/store/user/npervan/e2e/jmar_aodsim/ZprimeToTT_M-5000_W-50_TuneCUETP8M1_13TeV-madgraphMLM-pythia8/AODSIM/PUMoriond17_80X_mcRun2_asymptotic_2016_TrancheIV_v6-v1/80000/D439C07F-A212-E711-AE62-6C3BE5B50178.root\n'
p107
aS'/store/user/npervan/e2e/jmar_aodsim/ZprimeToTT_M-5000_W-50_TuneCUETP8M1_13TeV-madgraphMLM-pythia8/AODSIM/PUMoriond17_80X_mcRun2_asymptotic_2016_TrancheIV_v6-v1/80000/D6C3B88E-A111-E711-93FE-0025905A60B2.root\n'
p108
aS'/store/user/npervan/e2e/jmar_aodsim/ZprimeToTT_M-5000_W-50_TuneCUETP8M1_13TeV-madgraphMLM-pythia8/AODSIM/PUMoriond17_80X_mcRun2_asymptotic_2016_TrancheIV_v6-v1/80000/D81EF9C2-BF12-E711-B5F7-001E677923F6.root\n'
p109
aS'/store/user/npervan/e2e/jmar_aodsim/ZprimeToTT_M-5000_W-50_TuneCUETP8M1_13TeV-madgraphMLM-pythia8/AODSIM/PUMoriond17_80X_mcRun2_asymptotic_2016_TrancheIV_v6-v1/80000/E8364F56-4B11-E711-A141-44A8422411EB.root\n'
p110
aS'/store/user/npervan/e2e/jmar_aodsim/ZprimeToTT_M-5000_W-50_TuneCUETP8M1_13TeV-madgraphMLM-pythia8/AODSIM/PUMoriond17_80X_mcRun2_asymptotic_2016_TrancheIV_v6-v1/80000/E8ED2663-4B11-E711-8921-0025904C7DFC.root\n'
p111
aS'/store/user/npervan/e2e/jmar_aodsim/ZprimeToTT_M-5000_W-50_TuneCUETP8M1_13TeV-madgraphMLM-pythia8/AODSIM/PUMoriond17_80X_mcRun2_asymptotic_2016_TrancheIV_v6-v1/80000/EE170C78-8A11-E711-B74E-E0071B749C80.root\n'
p112
aS'/store/user/npervan/e2e/jmar_aodsim/ZprimeToTT_M-5000_W-50_TuneCUETP8M1_13TeV-madgraphMLM-pythia8/AODSIM/PUMoriond17_80X_mcRun2_asymptotic_2016_TrancheIV_v6-v1/80000/EE54DA84-3B11-E711-809A-0025905B8594.root\n'
p113
aS'/store/user/npervan/e2e/jmar_aodsim/ZprimeToTT_M-5000_W-50_TuneCUETP8M1_13TeV-madgraphMLM-pythia8/AODSIM/PUMoriond17_80X_mcRun2_asymptotic_2016_TrancheIV_v6-v1/80000/F069451E-E811-E711-BB9C-001EC9ED840F.root\n'
p114
asg64
I00
sbsg29
g3
(g9
g5
NtRp115
(dp116
g12
I00
sS'pyCfgParams'
p117
(lp118
S'outputFile=TTbar_pT200_1Tjet_aod_m-5000.root'
p119
aS'isTTbar=1'
p120
asg13
S''
sg14
g15
((lp121
S'psetName'
p122
aS'pluginName'
p123
ag117
aS'maxMemoryMB'
p124
aS'allowUndistributedCMSSW'
p125
atRp126
sg19
g29
sg20
(dp127
sg123
S'Analysis'
p128
sg22
g15
((ltRp129
sg125
I01
sg122
S'RecHitAnalyzer/python/ConfFile_cfg.py'
p130
sg25
Nsg124
I4000
sbsbsS'voGroup'
p131
S''
sS'Server'
p132
S'cmsweb.cern.ch'
p133
sS'instance'
p134
S'prod'
p135
sS'RequestName'
p136
V191210_165806:npervan_crab_TTbar_pT200_1Tjet_aod_m-5000
p137
sS'voRole'
p138
S'NULL'
p139
sS'Port'
p140
S''
s.