(dp1
S'OriginalConfig'
p2
ccopy_reg
_reconstructor
p3
(cWMCore.Configuration
Configuration
p4
c__builtin__
object
p5
NtRp6
(dp7
S'Site'
p8
g3
(cWMCore.Configuration
ConfigSection
p9
g5
NtRp10
(dp11
S'_internal_skipChecks'
p12
I00
sS'_internal_documentation'
p13
S''
sS'_internal_settings'
p14
c__builtin__
set
p15
((lp16
S'storageSite'
p17
atRp18
sS'_internal_name'
p19
g8
sS'_internal_docstrings'
p20
(dp21
sS'_internal_children'
p22
g15
((ltRp23
sg17
S'T3_US_FNALLPC'
p24
sS'_internal_parent_ref'
p25
NsbsS'_internal_sections'
p26
(lp27
S'General'
p28
aS'JobType'
p29
aS'Data'
p30
ag8
aS'User'
p31
aS'Debug'
p32
asg28
g3
(g9
g5
NtRp33
(dp34
S'transferLogs'
p35
I01
sg12
I00
sg13
S''
sg14
g15
((lp36
g35
aS'transferOutputs'
p37
aS'workArea'
p38
aS'requestName'
p39
atRp40
sg19
g28
sg20
(dp41
sg37
I01
sg22
g15
((ltRp42
sg39
S'TTbar_pT200_1Tjet_aod_m-750'
p43
sg25
Nsg38
S'/uscms/home/npervan/nobackup/e2e/slc7_jmar/CMSSW_8_0_21/src/MLAnalyzer'
p44
sbsS'_internal_webapps'
p45
(lp46
sg31
g3
(g9
g5
NtRp47
(dp48
g12
I00
sg13
S''
sg14
g15
((ltRp49
sg19
g31
sg20
(dp50
sg22
g15
((ltRp51
sg25
NsbsS'_internal_components'
p52
(lp53
sg32
g3
(g9
g5
NtRp54
(dp55
g12
I00
sg13
S''
sg14
g15
((ltRp56
sg19
g32
sg20
(dp57
sg22
g15
((ltRp58
sg25
Nsbsg30
g3
(g9
g5
NtRp59
(dp60
S'outputDatasetTag'
p61
g43
sg12
I00
sS'unitsPerJob'
p62
I4
sg13
S''
sg14
g15
((lp63
g61
aS'publication'
p64
ag62
aS'userInputFiles'
p65
aS'splitting'
p66
aS'outLFNDirBase'
p67
atRp68
sg19
g30
sg66
S'FileBased'
p69
sg20
(dp70
sg22
g15
((ltRp71
sg67
S'/store/user/npervan/e2e/top_jmar121019/'
p72
sg25
Nsg65
(lp73
S'/store/user/npervan/e2e/jmar_aodsim/ZprimeToTT_M-750_W-7p5_TuneCUETP8M1_13TeV-madgraphMLM-pythia8/AODSIM/PUMoriond17_80X_mcRun2_asymptotic_2016_TrancheIV_v6-v1/120000/02F6FBDC-ADBB-E611-BB41-0CC47A6C1054.root\n'
p74
aS'/store/user/npervan/e2e/jmar_aodsim/ZprimeToTT_M-750_W-7p5_TuneCUETP8M1_13TeV-madgraphMLM-pythia8/AODSIM/PUMoriond17_80X_mcRun2_asymptotic_2016_TrancheIV_v6-v1/120000/1475CD3E-B2BB-E611-AAAE-0CC47A78A456.root\n'
p75
aS'/store/user/npervan/e2e/jmar_aodsim/ZprimeToTT_M-750_W-7p5_TuneCUETP8M1_13TeV-madgraphMLM-pythia8/AODSIM/PUMoriond17_80X_mcRun2_asymptotic_2016_TrancheIV_v6-v1/120000/34BCF029-BFBB-E611-B191-A4BADB1C5D42.root\n'
p76
aS'/store/user/npervan/e2e/jmar_aodsim/ZprimeToTT_M-750_W-7p5_TuneCUETP8M1_13TeV-madgraphMLM-pythia8/AODSIM/PUMoriond17_80X_mcRun2_asymptotic_2016_TrancheIV_v6-v1/120000/3E21D6C6-AABB-E611-BEA7-0025905B856C.root\n'
p77
aS'/store/user/npervan/e2e/jmar_aodsim/ZprimeToTT_M-750_W-7p5_TuneCUETP8M1_13TeV-madgraphMLM-pythia8/AODSIM/PUMoriond17_80X_mcRun2_asymptotic_2016_TrancheIV_v6-v1/120000/4821952D-ADBB-E611-A2E3-0242AC130003.root\n'
p78
aS'/store/user/npervan/e2e/jmar_aodsim/ZprimeToTT_M-750_W-7p5_TuneCUETP8M1_13TeV-madgraphMLM-pythia8/AODSIM/PUMoriond17_80X_mcRun2_asymptotic_2016_TrancheIV_v6-v1/120000/56AB3A2F-AFBB-E611-8B80-0025901D08B8.root\n'
p79
aS'/store/user/npervan/e2e/jmar_aodsim/ZprimeToTT_M-750_W-7p5_TuneCUETP8M1_13TeV-madgraphMLM-pythia8/AODSIM/PUMoriond17_80X_mcRun2_asymptotic_2016_TrancheIV_v6-v1/120000/56C91828-BFBB-E611-8488-0242AC130005.root\n'
p80
aS'/store/user/npervan/e2e/jmar_aodsim/ZprimeToTT_M-750_W-7p5_TuneCUETP8M1_13TeV-madgraphMLM-pythia8/AODSIM/PUMoriond17_80X_mcRun2_asymptotic_2016_TrancheIV_v6-v1/120000/7082F077-BFBB-E611-A339-00259048AC76.root\n'
p81
aS'/store/user/npervan/e2e/jmar_aodsim/ZprimeToTT_M-750_W-7p5_TuneCUETP8M1_13TeV-madgraphMLM-pythia8/AODSIM/PUMoriond17_80X_mcRun2_asymptotic_2016_TrancheIV_v6-v1/120000/72FC3A5C-BFBB-E611-8CD6-002590491AE4.root\n'
p82
aS'/store/user/npervan/e2e/jmar_aodsim/ZprimeToTT_M-750_W-7p5_TuneCUETP8M1_13TeV-madgraphMLM-pythia8/AODSIM/PUMoriond17_80X_mcRun2_asymptotic_2016_TrancheIV_v6-v1/120000/845018DD-C8BB-E611-AC55-001E67A42026.root\n'
p83
aS'/store/user/npervan/e2e/jmar_aodsim/ZprimeToTT_M-750_W-7p5_TuneCUETP8M1_13TeV-madgraphMLM-pythia8/AODSIM/PUMoriond17_80X_mcRun2_asymptotic_2016_TrancheIV_v6-v1/120000/84B2D491-AABB-E611-A0EE-00259048812E.root\n'
p84
aS'/store/user/npervan/e2e/jmar_aodsim/ZprimeToTT_M-750_W-7p5_TuneCUETP8M1_13TeV-madgraphMLM-pythia8/AODSIM/PUMoriond17_80X_mcRun2_asymptotic_2016_TrancheIV_v6-v1/120000/904E4E95-ADBB-E611-94D9-0CC47A4C8EE2.root\n'
p85
aS'/store/user/npervan/e2e/jmar_aodsim/ZprimeToTT_M-750_W-7p5_TuneCUETP8M1_13TeV-madgraphMLM-pythia8/AODSIM/PUMoriond17_80X_mcRun2_asymptotic_2016_TrancheIV_v6-v1/120000/96989C4E-BFBB-E611-9EF9-0CC47A4D76A2.root\n'
p86
aS'/store/user/npervan/e2e/jmar_aodsim/ZprimeToTT_M-750_W-7p5_TuneCUETP8M1_13TeV-madgraphMLM-pythia8/AODSIM/PUMoriond17_80X_mcRun2_asymptotic_2016_TrancheIV_v6-v1/120000/B4D5EA8F-B1BB-E611-B14A-D067E5F91587.root\n'
p87
aS'/store/user/npervan/e2e/jmar_aodsim/ZprimeToTT_M-750_W-7p5_TuneCUETP8M1_13TeV-madgraphMLM-pythia8/AODSIM/PUMoriond17_80X_mcRun2_asymptotic_2016_TrancheIV_v6-v1/120000/C07ED07A-A9BB-E611-925B-001E674DA086.root\n'
p88
aS'/store/user/npervan/e2e/jmar_aodsim/ZprimeToTT_M-750_W-7p5_TuneCUETP8M1_13TeV-madgraphMLM-pythia8/AODSIM/PUMoriond17_80X_mcRun2_asymptotic_2016_TrancheIV_v6-v1/120000/D03DFD4F-BFBB-E611-85BD-FA163E68F93A.root\n'
p89
aS'/store/user/npervan/e2e/jmar_aodsim/ZprimeToTT_M-750_W-7p5_TuneCUETP8M1_13TeV-madgraphMLM-pythia8/AODSIM/PUMoriond17_80X_mcRun2_asymptotic_2016_TrancheIV_v6-v1/120000/D873F229-ADBB-E611-9E88-782BCB20D86D.root\n'
p90
aS'/store/user/npervan/e2e/jmar_aodsim/ZprimeToTT_M-750_W-7p5_TuneCUETP8M1_13TeV-madgraphMLM-pythia8/AODSIM/PUMoriond17_80X_mcRun2_asymptotic_2016_TrancheIV_v6-v1/120000/DADD1551-BFBB-E611-8232-0025905A60B0.root\n'
p91
aS'/store/user/npervan/e2e/jmar_aodsim/ZprimeToTT_M-750_W-7p5_TuneCUETP8M1_13TeV-madgraphMLM-pythia8/AODSIM/PUMoriond17_80X_mcRun2_asymptotic_2016_TrancheIV_v6-v1/120000/DEFA176A-BFBB-E611-AB4C-FA163E68052B.root\n'
p92
asg64
I00
sbsg29
g3
(g9
g5
NtRp93
(dp94
g12
I00
sS'pyCfgParams'
p95
(lp96
S'outputFile=TTbar_pT200_1Tjet_aod_m-750.root'
p97
aS'isTTbar=1'
p98
asg13
S''
sg14
g15
((lp99
S'psetName'
p100
aS'pluginName'
p101
ag95
aS'maxMemoryMB'
p102
aS'allowUndistributedCMSSW'
p103
atRp104
sg19
g29
sg20
(dp105
sg101
S'Analysis'
p106
sg22
g15
((ltRp107
sg103
I01
sg100
S'RecHitAnalyzer/python/ConfFile_cfg.py'
p108
sg25
Nsg102
I4000
sbsbsS'voGroup'
p109
S''
sS'Server'
p110
S'cmsweb.cern.ch'
p111
sS'instance'
p112
S'prod'
p113
sS'RequestName'
p114
V191210_163802:npervan_crab_TTbar_pT200_1Tjet_aod_m-750
p115
sS'voRole'
p116
S'NULL'
p117
sS'Port'
p118
S''
s.