(dp1
S'OriginalConfig'
p2
ccopy_reg
_reconstructor
p3
(cWMCore.Configuration
Configuration
p4
c__builtin__
object
p5
NtRp6
(dp7
S'Site'
p8
g3
(cWMCore.Configuration
ConfigSection
p9
g5
NtRp10
(dp11
S'_internal_skipChecks'
p12
I00
sS'_internal_documentation'
p13
S''
sS'_internal_settings'
p14
c__builtin__
set
p15
((lp16
S'storageSite'
p17
atRp18
sS'_internal_name'
p19
g8
sS'_internal_docstrings'
p20
(dp21
sS'_internal_children'
p22
g15
((ltRp23
sg17
S'T3_US_FNALLPC'
p24
sS'_internal_parent_ref'
p25
NsbsS'_internal_sections'
p26
(lp27
S'General'
p28
aS'JobType'
p29
aS'Data'
p30
ag8
aS'User'
p31
aS'Debug'
p32
asg28
g3
(g9
g5
NtRp33
(dp34
S'transferLogs'
p35
I01
sg12
I00
sg13
S''
sg14
g15
((lp36
g35
aS'transferOutputs'
p37
aS'workArea'
p38
aS'requestName'
p39
atRp40
sg19
g28
sg20
(dp41
sg37
I01
sg22
g15
((ltRp42
sg39
S'TTbar_pT200_1Tjet_aod_m-3000'
p43
sg25
Nsg38
S'/uscms/home/npervan/nobackup/e2e/slc7_jmar/CMSSW_8_0_21/src/MLAnalyzer'
p44
sbsS'_internal_webapps'
p45
(lp46
sg31
g3
(g9
g5
NtRp47
(dp48
g12
I00
sg13
S''
sg14
g15
((ltRp49
sg19
g31
sg20
(dp50
sg22
g15
((ltRp51
sg25
NsbsS'_internal_components'
p52
(lp53
sg32
g3
(g9
g5
NtRp54
(dp55
g12
I00
sg13
S''
sg14
g15
((ltRp56
sg19
g32
sg20
(dp57
sg22
g15
((ltRp58
sg25
Nsbsg30
g3
(g9
g5
NtRp59
(dp60
S'outputDatasetTag'
p61
g43
sg12
I00
sS'unitsPerJob'
p62
I4
sg13
S''
sg14
g15
((lp63
g61
aS'publication'
p64
ag62
aS'userInputFiles'
p65
aS'splitting'
p66
aS'outLFNDirBase'
p67
atRp68
sg19
g30
sg66
S'FileBased'
p69
sg20
(dp70
sg22
g15
((ltRp71
sg67
S'/store/user/npervan/e2e/top_jmar121019/'
p72
sg25
Nsg65
(lp73
S'/store/user/npervan/e2e/jmar_aodsim/ZprimeToTT_M-3000_W-30_TuneCUETP8M1_13TeV-madgraphMLM-pythia8/AODSIM/PUMoriond17_80X_mcRun2_asymptotic_2016_TrancheIV_v6-v1/120000/300BD174-80BB-E611-B309-5065F381B211.root\n'
p74
aS'/store/user/npervan/e2e/jmar_aodsim/ZprimeToTT_M-3000_W-30_TuneCUETP8M1_13TeV-madgraphMLM-pythia8/AODSIM/PUMoriond17_80X_mcRun2_asymptotic_2016_TrancheIV_v6-v1/120000/50EE2E5F-76BB-E611-A0FC-24BE05CEFDF1.root\n'
p75
aS'/store/user/npervan/e2e/jmar_aodsim/ZprimeToTT_M-3000_W-30_TuneCUETP8M1_13TeV-madgraphMLM-pythia8/AODSIM/PUMoriond17_80X_mcRun2_asymptotic_2016_TrancheIV_v6-v1/120000/82349E3F-72BB-E611-9294-24BE05C6D5B1.root\n'
p76
aS'/store/user/npervan/e2e/jmar_aodsim/ZprimeToTT_M-3000_W-30_TuneCUETP8M1_13TeV-madgraphMLM-pythia8/AODSIM/PUMoriond17_80X_mcRun2_asymptotic_2016_TrancheIV_v6-v1/120000/88A71280-71BB-E611-B9F1-24BE05C626B1.root\n'
p77
aS'/store/user/npervan/e2e/jmar_aodsim/ZprimeToTT_M-3000_W-30_TuneCUETP8M1_13TeV-madgraphMLM-pythia8/AODSIM/PUMoriond17_80X_mcRun2_asymptotic_2016_TrancheIV_v6-v1/120000/A06AF87D-7BBB-E611-9A93-24BE05C488E1.root\n'
p78
aS'/store/user/npervan/e2e/jmar_aodsim/ZprimeToTT_M-3000_W-30_TuneCUETP8M1_13TeV-madgraphMLM-pythia8/AODSIM/PUMoriond17_80X_mcRun2_asymptotic_2016_TrancheIV_v6-v1/120000/A091B774-7BBB-E611-AB47-24BE05C44BC1.root\n'
p79
aS'/store/user/npervan/e2e/jmar_aodsim/ZprimeToTT_M-3000_W-30_TuneCUETP8M1_13TeV-madgraphMLM-pythia8/AODSIM/PUMoriond17_80X_mcRun2_asymptotic_2016_TrancheIV_v6-v1/120000/B2938085-79BB-E611-ABC8-24BE05CE3C71.root\n'
p80
aS'/store/user/npervan/e2e/jmar_aodsim/ZprimeToTT_M-3000_W-30_TuneCUETP8M1_13TeV-madgraphMLM-pythia8/AODSIM/PUMoriond17_80X_mcRun2_asymptotic_2016_TrancheIV_v6-v1/120000/BAFAC44A-7EBB-E611-B055-A0369F3016EC.root\n'
p81
aS'/store/user/npervan/e2e/jmar_aodsim/ZprimeToTT_M-3000_W-30_TuneCUETP8M1_13TeV-madgraphMLM-pythia8/AODSIM/PUMoriond17_80X_mcRun2_asymptotic_2016_TrancheIV_v6-v1/120000/BC0422B0-7DBB-E611-9CC2-24BE05C488E1.root\n'
p82
aS'/store/user/npervan/e2e/jmar_aodsim/ZprimeToTT_M-3000_W-30_TuneCUETP8M1_13TeV-madgraphMLM-pythia8/AODSIM/PUMoriond17_80X_mcRun2_asymptotic_2016_TrancheIV_v6-v1/120000/BE37580C-70BB-E611-9DCC-24BE05C3B8B1.root\n'
p83
aS'/store/user/npervan/e2e/jmar_aodsim/ZprimeToTT_M-3000_W-30_TuneCUETP8M1_13TeV-madgraphMLM-pythia8/AODSIM/PUMoriond17_80X_mcRun2_asymptotic_2016_TrancheIV_v6-v1/120000/CC0C9875-7ABB-E611-9BC4-24BE05CEDCF1.root\n'
p84
aS'/store/user/npervan/e2e/jmar_aodsim/ZprimeToTT_M-3000_W-30_TuneCUETP8M1_13TeV-madgraphMLM-pythia8/AODSIM/PUMoriond17_80X_mcRun2_asymptotic_2016_TrancheIV_v6-v1/120000/E61B571C-73BB-E611-BCAE-24BE05C63791.root\n'
p85
asg64
I00
sbsg29
g3
(g9
g5
NtRp86
(dp87
g12
I00
sS'pyCfgParams'
p88
(lp89
S'outputFile=TTbar_pT200_1Tjet_aod_m-3000.root'
p90
aS'isTTbar=1'
p91
asg13
S''
sg14
g15
((lp92
S'psetName'
p93
aS'pluginName'
p94
ag88
aS'maxMemoryMB'
p95
aS'allowUndistributedCMSSW'
p96
atRp97
sg19
g29
sg20
(dp98
sg94
S'Analysis'
p99
sg22
g15
((ltRp100
sg96
I01
sg93
S'RecHitAnalyzer/python/ConfFile_cfg.py'
p101
sg25
Nsg95
I4000
sbsbsS'voGroup'
p102
S''
sS'Server'
p103
S'cmsweb.cern.ch'
p104
sS'instance'
p105
S'prod'
p106
sS'RequestName'
p107
V191210_164259:npervan_crab_TTbar_pT200_1Tjet_aod_m-3000
p108
sS'voRole'
p109
S'NULL'
p110
sS'Port'
p111
S''
s.