(dp1
S'OriginalConfig'
p2
ccopy_reg
_reconstructor
p3
(cWMCore.Configuration
Configuration
p4
c__builtin__
object
p5
NtRp6
(dp7
S'Site'
p8
g3
(cWMCore.Configuration
ConfigSection
p9
g5
NtRp10
(dp11
S'_internal_skipChecks'
p12
I00
sS'_internal_documentation'
p13
S''
sS'_internal_settings'
p14
c__builtin__
set
p15
((lp16
S'storageSite'
p17
atRp18
sS'_internal_name'
p19
g8
sS'_internal_docstrings'
p20
(dp21
sS'_internal_children'
p22
g15
((ltRp23
sg17
S'T3_US_FNALLPC'
p24
sS'_internal_parent_ref'
p25
NsbsS'_internal_sections'
p26
(lp27
S'General'
p28
aS'JobType'
p29
aS'Data'
p30
ag8
aS'User'
p31
aS'Debug'
p32
asg28
g3
(g9
g5
NtRp33
(dp34
S'transferLogs'
p35
I01
sg12
I00
sg13
S''
sg14
g15
((lp36
g35
aS'transferOutputs'
p37
aS'workArea'
p38
aS'requestName'
p39
atRp40
sg19
g28
sg20
(dp41
sg37
I01
sg22
g15
((ltRp42
sg39
S'TTbar_pT200_1Tjet_aod_m-3500'
p43
sg25
Nsg38
S'/uscms/home/npervan/nobackup/e2e/slc7_jmar/CMSSW_8_0_21/src/MLAnalyzer'
p44
sbsS'_internal_webapps'
p45
(lp46
sg31
g3
(g9
g5
NtRp47
(dp48
g12
I00
sg13
S''
sg14
g15
((ltRp49
sg19
g31
sg20
(dp50
sg22
g15
((ltRp51
sg25
NsbsS'_internal_components'
p52
(lp53
sg32
g3
(g9
g5
NtRp54
(dp55
g12
I00
sg13
S''
sg14
g15
((ltRp56
sg19
g32
sg20
(dp57
sg22
g15
((ltRp58
sg25
Nsbsg30
g3
(g9
g5
NtRp59
(dp60
S'outputDatasetTag'
p61
g43
sg12
I00
sS'unitsPerJob'
p62
I4
sg13
S''
sg14
g15
((lp63
g61
aS'publication'
p64
ag62
aS'userInputFiles'
p65
aS'splitting'
p66
aS'outLFNDirBase'
p67
atRp68
sg19
g30
sg66
S'FileBased'
p69
sg20
(dp70
sg22
g15
((ltRp71
sg67
S'/store/user/npervan/e2e/top_jmar121019/'
p72
sg25
Nsg65
(lp73
S'/store/user/npervan/e2e/jmar_aodsim/ZprimeToTT_M-3500_W-35_TuneCUETP8M1_13TeV-madgraphMLM-pythia8/AODSIM/PUMoriond17_80X_mcRun2_asymptotic_2016_TrancheIV_v6-v1/50000/0C94DCFA-FFB8-E611-AD9D-001E67E6F896.root\n'
p74
aS'/store/user/npervan/e2e/jmar_aodsim/ZprimeToTT_M-3500_W-35_TuneCUETP8M1_13TeV-madgraphMLM-pythia8/AODSIM/PUMoriond17_80X_mcRun2_asymptotic_2016_TrancheIV_v6-v1/50000/128B0744-43B9-E611-AACF-001E67E713B3.root\n'
p75
aS'/store/user/npervan/e2e/jmar_aodsim/ZprimeToTT_M-3500_W-35_TuneCUETP8M1_13TeV-madgraphMLM-pythia8/AODSIM/PUMoriond17_80X_mcRun2_asymptotic_2016_TrancheIV_v6-v1/50000/1AD5B16A-07B9-E611-8165-002590A36FB2.root\n'
p76
aS'/store/user/npervan/e2e/jmar_aodsim/ZprimeToTT_M-3500_W-35_TuneCUETP8M1_13TeV-madgraphMLM-pythia8/AODSIM/PUMoriond17_80X_mcRun2_asymptotic_2016_TrancheIV_v6-v1/50000/345D97B2-0FB9-E611-A4FA-002590A80DE0.root\n'
p77
aS'/store/user/npervan/e2e/jmar_aodsim/ZprimeToTT_M-3500_W-35_TuneCUETP8M1_13TeV-madgraphMLM-pythia8/AODSIM/PUMoriond17_80X_mcRun2_asymptotic_2016_TrancheIV_v6-v1/50000/3EE50808-F3B8-E611-AD3F-001E67E6F805.root\n'
p78
aS'/store/user/npervan/e2e/jmar_aodsim/ZprimeToTT_M-3500_W-35_TuneCUETP8M1_13TeV-madgraphMLM-pythia8/AODSIM/PUMoriond17_80X_mcRun2_asymptotic_2016_TrancheIV_v6-v1/50000/429453A1-0BB9-E611-8C6C-002590A370B2.root\n'
p79
aS'/store/user/npervan/e2e/jmar_aodsim/ZprimeToTT_M-3500_W-35_TuneCUETP8M1_13TeV-madgraphMLM-pythia8/AODSIM/PUMoriond17_80X_mcRun2_asymptotic_2016_TrancheIV_v6-v1/50000/4E60C16F-01B9-E611-9CEC-002590A371AC.root\n'
p80
aS'/store/user/npervan/e2e/jmar_aodsim/ZprimeToTT_M-3500_W-35_TuneCUETP8M1_13TeV-madgraphMLM-pythia8/AODSIM/PUMoriond17_80X_mcRun2_asymptotic_2016_TrancheIV_v6-v1/50000/66545646-FDB8-E611-8D4B-002590A37118.root\n'
p81
aS'/store/user/npervan/e2e/jmar_aodsim/ZprimeToTT_M-3500_W-35_TuneCUETP8M1_13TeV-madgraphMLM-pythia8/AODSIM/PUMoriond17_80X_mcRun2_asymptotic_2016_TrancheIV_v6-v1/50000/7671BF9F-FEB8-E611-974D-002590A371D4.root\n'
p82
aS'/store/user/npervan/e2e/jmar_aodsim/ZprimeToTT_M-3500_W-35_TuneCUETP8M1_13TeV-madgraphMLM-pythia8/AODSIM/PUMoriond17_80X_mcRun2_asymptotic_2016_TrancheIV_v6-v1/50000/76B72D9A-FAB8-E611-93CA-002590A80DDA.root\n'
p83
aS'/store/user/npervan/e2e/jmar_aodsim/ZprimeToTT_M-3500_W-35_TuneCUETP8M1_13TeV-madgraphMLM-pythia8/AODSIM/PUMoriond17_80X_mcRun2_asymptotic_2016_TrancheIV_v6-v1/50000/8EA0B7F4-FBB8-E611-9450-001E67792688.root\n'
p84
aS'/store/user/npervan/e2e/jmar_aodsim/ZprimeToTT_M-3500_W-35_TuneCUETP8M1_13TeV-madgraphMLM-pythia8/AODSIM/PUMoriond17_80X_mcRun2_asymptotic_2016_TrancheIV_v6-v1/50000/BEB9AA7C-5AB9-E611-9BBE-002590A3C978.root\n'
p85
aS'/store/user/npervan/e2e/jmar_aodsim/ZprimeToTT_M-3500_W-35_TuneCUETP8M1_13TeV-madgraphMLM-pythia8/AODSIM/PUMoriond17_80X_mcRun2_asymptotic_2016_TrancheIV_v6-v1/50000/DC1BA9E6-FEB8-E611-B837-001E67E6F81E.root\n'
p86
aS'/store/user/npervan/e2e/jmar_aodsim/ZprimeToTT_M-3500_W-35_TuneCUETP8M1_13TeV-madgraphMLM-pythia8/AODSIM/PUMoriond17_80X_mcRun2_asymptotic_2016_TrancheIV_v6-v1/50000/DE0C1AD7-C2B9-E611-8EEA-008CFA197448.root\n'
p87
aS'/store/user/npervan/e2e/jmar_aodsim/ZprimeToTT_M-3500_W-35_TuneCUETP8M1_13TeV-madgraphMLM-pythia8/AODSIM/PUMoriond17_80X_mcRun2_asymptotic_2016_TrancheIV_v6-v1/50000/E658154D-03B9-E611-821E-001E67E6F805.root\n'
p88
aS'/store/user/npervan/e2e/jmar_aodsim/ZprimeToTT_M-3500_W-35_TuneCUETP8M1_13TeV-madgraphMLM-pythia8/AODSIM/PUMoriond17_80X_mcRun2_asymptotic_2016_TrancheIV_v6-v1/50000/EEC30813-27B9-E611-8F43-001E67792818.root\n'
p89
asg64
I00
sbsg29
g3
(g9
g5
NtRp90
(dp91
g12
I00
sS'pyCfgParams'
p92
(lp93
S'outputFile=TTbar_pT200_1Tjet_aod_m-3500.root'
p94
aS'isTTbar=1'
p95
asg13
S''
sg14
g15
((lp96
S'psetName'
p97
aS'pluginName'
p98
ag92
aS'maxMemoryMB'
p99
aS'allowUndistributedCMSSW'
p100
atRp101
sg19
g29
sg20
(dp102
sg98
S'Analysis'
p103
sg22
g15
((ltRp104
sg100
I01
sg97
S'RecHitAnalyzer/python/ConfFile_cfg.py'
p105
sg25
Nsg99
I4000
sbsbsS'voGroup'
p106
S''
sS'Server'
p107
S'cmsweb.cern.ch'
p108
sS'instance'
p109
S'prod'
p110
sS'RequestName'
p111
V191210_164327:npervan_crab_TTbar_pT200_1Tjet_aod_m-3500
p112
sS'voRole'
p113
S'NULL'
p114
sS'Port'
p115
S''
s.