(dp1
S'OriginalConfig'
p2
ccopy_reg
_reconstructor
p3
(cWMCore.Configuration
Configuration
p4
c__builtin__
object
p5
NtRp6
(dp7
S'Site'
p8
g3
(cWMCore.Configuration
ConfigSection
p9
g5
NtRp10
(dp11
S'_internal_skipChecks'
p12
I00
sS'_internal_documentation'
p13
S''
sS'_internal_settings'
p14
c__builtin__
set
p15
((lp16
S'storageSite'
p17
atRp18
sS'_internal_name'
p19
g8
sS'_internal_docstrings'
p20
(dp21
sS'_internal_children'
p22
g15
((ltRp23
sg17
S'T3_US_FNALLPC'
p24
sS'_internal_parent_ref'
p25
NsbsS'_internal_sections'
p26
(lp27
S'General'
p28
aS'JobType'
p29
aS'Data'
p30
ag8
aS'User'
p31
aS'Debug'
p32
asg28
g3
(g9
g5
NtRp33
(dp34
S'transferLogs'
p35
I01
sg12
I00
sg13
S''
sg14
g15
((lp36
g35
aS'transferOutputs'
p37
aS'workArea'
p38
aS'requestName'
p39
atRp40
sg19
g28
sg20
(dp41
sg37
I01
sg22
g15
((ltRp42
sg39
S'TTbar_pT200_2Tjet_aod_m-2000_0420'
p43
sg25
Nsg38
S'/uscms/home/npervan/nobackup/e2e/slc7_jmar/CMSSW_8_0_21/src/MLAnalyzer'
p44
sbsS'_internal_webapps'
p45
(lp46
sg31
g3
(g9
g5
NtRp47
(dp48
g12
I00
sg13
S''
sg14
g15
((ltRp49
sg19
g31
sg20
(dp50
sg22
g15
((ltRp51
sg25
NsbsS'_internal_components'
p52
(lp53
sg32
g3
(g9
g5
NtRp54
(dp55
g12
I00
sg13
S''
sg14
g15
((ltRp56
sg19
g32
sg20
(dp57
sg22
g15
((ltRp58
sg25
Nsbsg30
g3
(g9
g5
NtRp59
(dp60
S'outputDatasetTag'
p61
g43
sg12
I00
sS'unitsPerJob'
p62
I4
sg13
S''
sg14
g15
((lp63
g61
aS'publication'
p64
ag62
aS'userInputFiles'
p65
aS'splitting'
p66
aS'outLFNDirBase'
p67
atRp68
sg19
g30
sg66
S'FileBased'
p69
sg20
(dp70
sg22
g15
((ltRp71
sg67
S'/store/user/npervan/e2e/jmar_0420/'
p72
sg25
Nsg65
(lp73
S'/store/user/npervan/e2e/jmar_aodsim/ZprimeToTT_M-2000_W-20_TuneCUETP8M1_13TeV-madgraphMLM-pythia8/AODSIM/PUMoriond17_80X_mcRun2_asymptotic_2016_TrancheIV_v6-v1/70000/0A8A6A70-49C8-E611-A8C4-02163E019D9B.root\n'
p74
aS'/store/user/npervan/e2e/jmar_aodsim/ZprimeToTT_M-2000_W-20_TuneCUETP8M1_13TeV-madgraphMLM-pythia8/AODSIM/PUMoriond17_80X_mcRun2_asymptotic_2016_TrancheIV_v6-v1/70000/0C4C61C0-39C8-E611-8C66-02163E019E00.root\n'
p75
aS'/store/user/npervan/e2e/jmar_aodsim/ZprimeToTT_M-2000_W-20_TuneCUETP8M1_13TeV-madgraphMLM-pythia8/AODSIM/PUMoriond17_80X_mcRun2_asymptotic_2016_TrancheIV_v6-v1/70000/10B43EAE-43C8-E611-AD28-FA163E33B29A.root\n'
p76
aS'/store/user/npervan/e2e/jmar_aodsim/ZprimeToTT_M-2000_W-20_TuneCUETP8M1_13TeV-madgraphMLM-pythia8/AODSIM/PUMoriond17_80X_mcRun2_asymptotic_2016_TrancheIV_v6-v1/70000/1817C734-42C8-E611-BB9F-02163E019DD8.root\n'
p77
aS'/store/user/npervan/e2e/jmar_aodsim/ZprimeToTT_M-2000_W-20_TuneCUETP8M1_13TeV-madgraphMLM-pythia8/AODSIM/PUMoriond17_80X_mcRun2_asymptotic_2016_TrancheIV_v6-v1/70000/18ADC2CA-42C8-E611-BF82-02163E019D25.root\n'
p78
aS'/store/user/npervan/e2e/jmar_aodsim/ZprimeToTT_M-2000_W-20_TuneCUETP8M1_13TeV-madgraphMLM-pythia8/AODSIM/PUMoriond17_80X_mcRun2_asymptotic_2016_TrancheIV_v6-v1/70000/2E16483C-54C8-E611-9C20-02163E019B22.root\n'
p79
aS'/store/user/npervan/e2e/jmar_aodsim/ZprimeToTT_M-2000_W-20_TuneCUETP8M1_13TeV-madgraphMLM-pythia8/AODSIM/PUMoriond17_80X_mcRun2_asymptotic_2016_TrancheIV_v6-v1/70000/42D81BCC-42C8-E611-85C5-02163E019C9D.root\n'
p80
aS'/store/user/npervan/e2e/jmar_aodsim/ZprimeToTT_M-2000_W-20_TuneCUETP8M1_13TeV-madgraphMLM-pythia8/AODSIM/PUMoriond17_80X_mcRun2_asymptotic_2016_TrancheIV_v6-v1/70000/46480182-38C8-E611-B112-02163E019E18.root\n'
p81
aS'/store/user/npervan/e2e/jmar_aodsim/ZprimeToTT_M-2000_W-20_TuneCUETP8M1_13TeV-madgraphMLM-pythia8/AODSIM/PUMoriond17_80X_mcRun2_asymptotic_2016_TrancheIV_v6-v1/70000/46541CCE-42C8-E611-8A43-02163E019C5E.root\n'
p82
aS'/store/user/npervan/e2e/jmar_aodsim/ZprimeToTT_M-2000_W-20_TuneCUETP8M1_13TeV-madgraphMLM-pythia8/AODSIM/PUMoriond17_80X_mcRun2_asymptotic_2016_TrancheIV_v6-v1/70000/468311B8-43C8-E611-A968-02163E019CA8.root\n'
p83
aS'/store/user/npervan/e2e/jmar_aodsim/ZprimeToTT_M-2000_W-20_TuneCUETP8M1_13TeV-madgraphMLM-pythia8/AODSIM/PUMoriond17_80X_mcRun2_asymptotic_2016_TrancheIV_v6-v1/70000/4894EB2F-4DC8-E611-8CDA-02163E019B6E.root\n'
p84
aS'/store/user/npervan/e2e/jmar_aodsim/ZprimeToTT_M-2000_W-20_TuneCUETP8M1_13TeV-madgraphMLM-pythia8/AODSIM/PUMoriond17_80X_mcRun2_asymptotic_2016_TrancheIV_v6-v1/70000/54490029-42C8-E611-9B2D-02163E019E12.root\n'
p85
aS'/store/user/npervan/e2e/jmar_aodsim/ZprimeToTT_M-2000_W-20_TuneCUETP8M1_13TeV-madgraphMLM-pythia8/AODSIM/PUMoriond17_80X_mcRun2_asymptotic_2016_TrancheIV_v6-v1/70000/585C133D-40C8-E611-B5D9-02163E019E50.root\n'
p86
aS'/store/user/npervan/e2e/jmar_aodsim/ZprimeToTT_M-2000_W-20_TuneCUETP8M1_13TeV-madgraphMLM-pythia8/AODSIM/PUMoriond17_80X_mcRun2_asymptotic_2016_TrancheIV_v6-v1/70000/64B15EC9-9EC7-E611-B514-02163E019D1C.root\n'
p87
aS'/store/user/npervan/e2e/jmar_aodsim/ZprimeToTT_M-2000_W-20_TuneCUETP8M1_13TeV-madgraphMLM-pythia8/AODSIM/PUMoriond17_80X_mcRun2_asymptotic_2016_TrancheIV_v6-v1/70000/886D15E8-47C8-E611-BDAB-02163E019CA3.root\n'
p88
aS'/store/user/npervan/e2e/jmar_aodsim/ZprimeToTT_M-2000_W-20_TuneCUETP8M1_13TeV-madgraphMLM-pythia8/AODSIM/PUMoriond17_80X_mcRun2_asymptotic_2016_TrancheIV_v6-v1/70000/98882C6C-4FC8-E611-AC92-FA163E18D1AC.root\n'
p89
aS'/store/user/npervan/e2e/jmar_aodsim/ZprimeToTT_M-2000_W-20_TuneCUETP8M1_13TeV-madgraphMLM-pythia8/AODSIM/PUMoriond17_80X_mcRun2_asymptotic_2016_TrancheIV_v6-v1/70000/9E0DB8D6-3CC8-E611-83D3-02163E019E09.root\n'
p90
aS'/store/user/npervan/e2e/jmar_aodsim/ZprimeToTT_M-2000_W-20_TuneCUETP8M1_13TeV-madgraphMLM-pythia8/AODSIM/PUMoriond17_80X_mcRun2_asymptotic_2016_TrancheIV_v6-v1/70000/C2A806D7-4CC8-E611-9EF3-02163E011952.root\n'
p91
aS'/store/user/npervan/e2e/jmar_aodsim/ZprimeToTT_M-2000_W-20_TuneCUETP8M1_13TeV-madgraphMLM-pythia8/AODSIM/PUMoriond17_80X_mcRun2_asymptotic_2016_TrancheIV_v6-v1/70000/C4D14547-40C8-E611-8987-02163E01440F.root\n'
p92
aS'/store/user/npervan/e2e/jmar_aodsim/ZprimeToTT_M-2000_W-20_TuneCUETP8M1_13TeV-madgraphMLM-pythia8/AODSIM/PUMoriond17_80X_mcRun2_asymptotic_2016_TrancheIV_v6-v1/70000/C8A98098-46C8-E611-8C82-02163E019C4D.root\n'
p93
aS'/store/user/npervan/e2e/jmar_aodsim/ZprimeToTT_M-2000_W-20_TuneCUETP8M1_13TeV-madgraphMLM-pythia8/AODSIM/PUMoriond17_80X_mcRun2_asymptotic_2016_TrancheIV_v6-v1/70000/CA70224A-48C8-E611-AA35-02163E019BD8.root\n'
p94
aS'/store/user/npervan/e2e/jmar_aodsim/ZprimeToTT_M-2000_W-20_TuneCUETP8M1_13TeV-madgraphMLM-pythia8/AODSIM/PUMoriond17_80X_mcRun2_asymptotic_2016_TrancheIV_v6-v1/70000/D8C7BCA3-4EC8-E611-A0FE-02163E019D98.root\n'
p95
aS'/store/user/npervan/e2e/jmar_aodsim/ZprimeToTT_M-2000_W-20_TuneCUETP8M1_13TeV-madgraphMLM-pythia8/AODSIM/PUMoriond17_80X_mcRun2_asymptotic_2016_TrancheIV_v6-v1/70000/EECD0DD7-44C8-E611-8019-02163E019C37.root\n'
p96
aS'/store/user/npervan/e2e/jmar_aodsim/ZprimeToTT_M-2000_W-20_TuneCUETP8M1_13TeV-madgraphMLM-pythia8/AODSIM/PUMoriond17_80X_mcRun2_asymptotic_2016_TrancheIV_v6-v1/70000/FA50EB2A-3EC8-E611-B9C5-02163E019C8B.root\n'
p97
asg64
I00
sbsg29
g3
(g9
g5
NtRp98
(dp99
g12
I00
sS'pyCfgParams'
p100
(lp101
S'outputFile=TTbar_pT200_2Tjet_aod_m-2000_0420.root'
p102
aS'isTTbar=1'
p103
asg13
S''
sg14
g15
((lp104
S'psetName'
p105
aS'pluginName'
p106
ag100
aS'maxMemoryMB'
p107
aS'allowUndistributedCMSSW'
p108
atRp109
sg19
g29
sg20
(dp110
sg106
S'Analysis'
p111
sg22
g15
((ltRp112
sg108
I01
sg105
S'RecHitAnalyzer/python/ConfFile_cfg.py'
p113
sg25
Nsg107
I4000
sbsbsS'voGroup'
p114
S''
sS'Server'
p115
S'cmsweb.cern.ch'
p116
sS'instance'
p117
S'prod'
p118
sS'RequestName'
p119
V200413_144753:npervan_crab_TTbar_pT200_2Tjet_aod_m-2000_0420
p120
sS'voRole'
p121
S'NULL'
p122
sS'Port'
p123
S''
s.